; ModuleID = '45/1231.c'
source_filename = "45/1231.c"
target datalayout = "e-m:e-p270:32:32-p271:32:32-p272:64:64-i64:64-f80:128-n8:16:32:64-S128"
target triple = "x86_64-pc-linux-gnu"

@.str = private unnamed_addr constant [5 x i8] c"%s%s\00", align 1
@.str.1 = private unnamed_addr constant [3 x i8] c"%d\00", align 1

; Function Attrs: noinline nounwind uwtable
define dso_local i32 @main() #0 {
  %1 = alloca i32, align 4
  %2 = alloca [50 x i8], align 16
  %3 = alloca [50 x i8], align 16
  %4 = alloca i32, align 4
  %5 = alloca i32, align 4
  %6 = alloca i32, align 4
  %7 = alloca i32, align 4
  %8 = alloca i32, align 4
  %9 = alloca i32, align 4
  %10 = alloca i32, align 4
  store i32 0, i32* %1, align 4
  %11 = bitcast [50 x i8]* %2 to i8*
  call void @llvm.memset.p0i8.i64(i8* align 16 %11, i8 0, i64 50, i1 false)
  %12 = bitcast [50 x i8]* %3 to i8*
  call void @llvm.memset.p0i8.i64(i8* align 16 %12, i8 0, i64 50, i1 false)
  %13 = getelementptr inbounds [50 x i8], [50 x i8]* %2, i64 0, i64 0
  %14 = getelementptr inbounds [50 x i8], [50 x i8]* %3, i64 0, i64 0
  %15 = call i32 (i8*, ...) @__isoc99_scanf(i8* getelementptr inbounds ([5 x i8], [5 x i8]* @.str, i64 0, i64 0), i8* %13, i8* %14)
  store i32 0, i32* %7, align 4
  store i32 0, i32* %8, align 4
  store i32 2, i32* %9, align 4
  %16 = getelementptr inbounds [50 x i8], [50 x i8]* %2, i64 0, i64 0
  %17 = call i64 @strlen(i8* %16) #4
  %18 = trunc i64 %17 to i32
  store i32 %18, i32* %4, align 4
  %19 = getelementptr inbounds [50 x i8], [50 x i8]* %3, i64 0, i64 0
  %20 = call i64 @strlen(i8* %19) #4
  %21 = trunc i64 %20 to i32
  store i32 %21, i32* %5, align 4
  %22 = load i32, i32* %5, align 4
  %23 = load i32, i32* %4, align 4
  %24 = sub nsw i32 %22, %23
  store i32 %24, i32* %10, align 4
  store i32 0, i32* %6, align 4
  br label %25

25:                                               ; preds = %75, %0
  %26 = load i32, i32* %6, align 4
  %27 = load i32, i32* %10, align 4
  %28 = add nsw i32 %27, 1
  %29 = icmp slt i32 %26, %28
  br i1 %29, label %30, label %33

30:                                               ; preds = %25
  %31 = load i32, i32* %9, align 4
  %32 = icmp eq i32 %31, 2
  br label %33

33:                                               ; preds = %30, %25
  %34 = phi i1 [ false, %25 ], [ %32, %30 ]
  br i1 %34, label %35, label %78

35:                                               ; preds = %33
  %36 = getelementptr inbounds [50 x i8], [50 x i8]* %2, i64 0, i64 0
  %37 = load i8, i8* %36, align 16
  %38 = sext i8 %37 to i32
  %39 = load i32, i32* %6, align 4
  %40 = sext i32 %39 to i64
  %41 = getelementptr inbounds [50 x i8], [50 x i8]* %3, i64 0, i64 %40
  %42 = load i8, i8* %41, align 1
  %43 = sext i8 %42 to i32
  %44 = icmp eq i32 %38, %43
  br i1 %44, label %45, label %74

45:                                               ; preds = %35
  store i32 1, i32* %9, align 4
  %46 = load i32, i32* %6, align 4
  store i32 %46, i32* %8, align 4
  %47 = load i32, i32* %6, align 4
  store i32 %47, i32* %7, align 4
  br label %48

48:                                               ; preds = %70, %45
  %49 = load i32, i32* %7, align 4
  %50 = load i32, i32* %6, align 4
  %51 = load i32, i32* %4, align 4
  %52 = add nsw i32 %50, %51
  %53 = icmp slt i32 %49, %52
  br i1 %53, label %54, label %73

54:                                               ; preds = %48
  %55 = load i32, i32* %7, align 4
  %56 = load i32, i32* %6, align 4
  %57 = sub nsw i32 %55, %56
  %58 = sext i32 %57 to i64
  %59 = getelementptr inbounds [50 x i8], [50 x i8]* %2, i64 0, i64 %58
  %60 = load i8, i8* %59, align 1
  %61 = sext i8 %60 to i32
  %62 = load i32, i32* %7, align 4
  %63 = sext i32 %62 to i64
  %64 = getelementptr inbounds [50 x i8], [50 x i8]* %3, i64 0, i64 %63
  %65 = load i8, i8* %64, align 1
  %66 = sext i8 %65 to i32
  %67 = icmp ne i32 %61, %66
  br i1 %67, label %68, label %69

68:                                               ; preds = %54
  store i32 2, i32* %9, align 4
  br label %73

69:                                               ; preds = %54
  br label %70

70:                                               ; preds = %69
  %71 = load i32, i32* %7, align 4
  %72 = add nsw i32 %71, 1
  store i32 %72, i32* %7, align 4
  br label %48

73:                                               ; preds = %68, %48
  br label %74

74:                                               ; preds = %73, %35
  br label %75

75:                                               ; preds = %74
  %76 = load i32, i32* %6, align 4
  %77 = add nsw i32 %76, 1
  store i32 %77, i32* %6, align 4
  br label %25

78:                                               ; preds = %33
  %79 = load i32, i32* %8, align 4
  %80 = call i32 (i8*, ...) @printf(i8* getelementptr inbounds ([3 x i8], [3 x i8]* @.str.1, i64 0, i64 0), i32 %79)
  ret i32 0
}

; Function Attrs: argmemonly nounwind willreturn
declare void @llvm.memset.p0i8.i64(i8* nocapture writeonly, i8, i64, i1 immarg) #1

declare dso_local i32 @__isoc99_scanf(i8*, ...) #2

; Function Attrs: nounwind readonly
declare dso_local i64 @strlen(i8*) #3

declare dso_local i32 @printf(i8*, ...) #2


!llvm.module.flags = !{!0}
!llvm.ident = !{!1}

!0 = !{i32 1, !"wchar_size", i32 4}
!1 = !{!"clang version 10.0.0-4ubuntu1 "}
